; Function Attrs: mustprogress nounwind uwtable
define internal fastcc void @_ZZN12_GLOBAL__N_14Impl14processRequestEPN3dap4json19JsonCppDeserializerENS1_7integerEENUlvE_D2Ev(ptr noundef nonnull align 8 dereferenceable(96) %0) unnamed_addr #11 align 2 personality ptr @__gxx_personality_v0 {
  %2 = getelementptr inbounds i8, ptr %0, i64 56
  tail call void @_ZNSt7__cxx1112basic_stringIcSt11char_traitsIcESaIcEED1Ev(ptr noundef nonnull align 8 dereferenceable(32) %2) #22
  %3 = getelementptr inbounds i8, ptr %0, i64 16
  %4 = load ptr, ptr %3, align 8
  %.not.i.i = icmp eq ptr %4, null
  br i1 %.not.i.i, label %_ZNSt8functionIFvPKvRKS_IFvPKN3dap8TypeInfoES1_EERKS_IFvS5_RKNS2_5ErrorEEEEED2Ev.exit, label %5

5:                                                ; preds = %1
  %6 = invoke noundef zeroext i1 %4(ptr noundef nonnull align 8 dereferenceable(16) %0, ptr noundef nonnull align 8 dereferenceable(16) %0, i32 noundef 3)
          to label %_ZNSt8functionIFvPKvRKS_IFvPKN3dap8TypeInfoES1_EERKS_IFvS5_RKNS2_5ErrorEEEEED2Ev.exit unwind label %7

7:                                                ; preds = %5
  %8 = landingpad { ptr, i32 }
          catch ptr null
  %9 = extractvalue { ptr, i32 } %8, 0
  tail call void @__clang_call_terminate(ptr %9) #23
  unreachable

_ZNSt8functionIFvPKvRKS_IFvPKN3dap8TypeInfoES1_EERKS_IFvS5_RKNS2_5ErrorEEEEED2Ev.exit: ; preds = %1, %5
  ret void
}